; Function Attrs: nounwind uwtable
define i32 @test_flush_stderr() local_unnamed_addr #0 {
  %1 = load ptr, ptr @io_lock, align 8, !tbaa !13
  %2 = tail call i32 @CRYPTO_THREAD_write_lock(ptr noundef %1) #3
  %3 = icmp sgt i32 %2, 0
  br i1 %3, label %test_io_lock.exit, label %4

4:                                                ; preds = %0
  tail call void @OPENSSL_die(ptr noundef nonnull @.str.6, ptr noundef nonnull @.str.2, i32 noundef 191) #4
  unreachable

test_io_lock.exit:                                ; preds = %0
  %5 = tail call ptr @CRYPTO_THREAD_get_local(ptr noundef nonnull @local_test_data) #3
  %.not.i.i = icmp eq ptr %5, null
  br i1 %.not.i.i, label %6, label %get_local_test_data.exit.i

6:                                                ; preds = %test_io_lock.exit
  %7 = tail call noalias ptr @CRYPTO_zalloc(i64 noundef 16, ptr noundef nonnull @.str.2, i32 noundef 61) #3
  %8 = icmp eq ptr %7, null
  br i1 %8, label %get_local_test_data.exit.thread.i, label %9

9:                                                ; preds = %6
  %10 = tail call i32 @CRYPTO_THREAD_set_local(ptr noundef nonnull @local_test_data, ptr noundef nonnull %7) #3
  %.not8.i.i = icmp eq i32 %10, 0
  br i1 %.not8.i.i, label %11, label %get_local_test_data.exit.i

11:                                               ; preds = %9
  tail call void @CRYPTO_free(ptr noundef nonnull %7, ptr noundef nonnull @.str.2, i32 noundef 65) #3
  br label %get_local_test_data.exit.thread.i

get_local_test_data.exit.i:                       ; preds = %9, %test_io_lock.exit
  %.0.i.i = phi ptr [ %5, %test_io_lock.exit ], [ %7, %9 ]
  %12 = getelementptr inbounds nuw i8, ptr %.0.i.i, i64 8
  %13 = load ptr, ptr %12, align 8, !tbaa !9
  %.not6.i = icmp eq ptr %13, null
  br i1 %.not6.i, label %get_local_test_data.exit.thread.i, label %get_bio_err.exit

get_local_test_data.exit.thread.i:                ; preds = %get_local_test_data.exit.i, %11, %6
  %14 = load ptr, ptr @bio_err, align 8, !tbaa !12
  br label %get_bio_err.exit

get_bio_err.exit:                                 ; preds = %get_local_test_data.exit.i, %get_local_test_data.exit.thread.i
  %.0.i = phi ptr [ %14, %get_local_test_data.exit.thread.i ], [ %13, %get_local_test_data.exit.i ]
  %15 = tail call i64 @BIO_ctrl(ptr noundef %.0.i, i32 noundef 11, i64 noundef 0, ptr noundef null) #3
  %16 = trunc i64 %15 to i32
  %17 = load ptr, ptr @io_lock, align 8, !tbaa !13
  %18 = tail call i32 @CRYPTO_THREAD_unlock(ptr noundef %17) #3
  ret i32 %16
}